; Function Attrs: mustprogress nofree norecurse nosync nounwind sspstrong willreturn memory(argmem: read) uwtable
define hidden i32 @rb_vm_ci_flag(ptr noundef %0) local_unnamed_addr #10 {
  %2 = ptrtoint ptr %0 to i64
  %3 = and i64 %2, 1
  %.not.i.not.i = icmp eq i64 %3, 0
  br i1 %.not.i.not.i, label %7, label %4

4:                                                ; preds = %1
  %5 = trunc i64 %2 to i32
  %6 = lshr i32 %5, 16
  br label %vm_ci_flag.exit

7:                                                ; preds = %1
  %8 = getelementptr inbounds nuw i8, ptr %0, i64 24
  %9 = load i64, ptr %8, align 8, !tbaa !128
  %10 = trunc i64 %9 to i32
  br label %vm_ci_flag.exit

vm_ci_flag.exit:                                  ; preds = %4, %7
  %.0.i = phi i32 [ %6, %4 ], [ %10, %7 ]
  ret i32 %.0.i
}